target datalayout = "e-m:e-p270:32:32-p271:32:32-p272:64:64-i64:64-i128:128-f80:128-n8:16:32:64-S128"
target triple = "x86_64-pc-linux-gnu"

%struct.ForEachState = type { ptr, i32 }
%struct.List = type { i32, i32, i32, ptr, [0 x %union.ListCell] }
%union.ListCell = type { ptr }
%struct.ExplainState = type { ptr, i8, i8, i8, i8, i8, i8, i8, i8, i8, i8, i32, i32, i32, ptr, ptr, ptr, ptr, ptr, ptr, i8, i32, ptr }
%struct.PlanState = type { i32, ptr, ptr, ptr, ptr, ptr, ptr, ptr, ptr, ptr, ptr, ptr, ptr, ptr, ptr, ptr, ptr, ptr, i8, ptr, ptr, ptr, ptr, ptr, i8, i8, i8, i8, i8, i8, i8, i8 }
%struct.Plan = type { i32, i32, double, double, double, i32, i8, i8, i8, i32, ptr, ptr, ptr, ptr, ptr, ptr, ptr }
%struct.Agg = type { %struct.Plan, i32, i32, i32, ptr, ptr, ptr, i64, i64, ptr, ptr, ptr }
%struct.TargetEntry = type { %struct.Expr, ptr, i16, ptr, i32, i32, i16, i8 }
%struct.Expr = type { i32 }
%struct.Sort = type { %struct.Plan, i32, ptr, ptr, ptr, ptr }

@.str.16 = private unnamed_addr constant [10 x i8] c"explain.c\00", align 1
@.str.271 = private unnamed_addr constant [10 x i8] c"Group Key\00", align 1
@.str.273 = private unnamed_addr constant [9 x i8] c"Hash Key\00", align 1
@.str.274 = private unnamed_addr constant [10 x i8] c"Hash Keys\00", align 1
@.str.275 = private unnamed_addr constant [11 x i8] c"Group Keys\00", align 1
@.str.276 = private unnamed_addr constant [13 x i8] c"Grouping Set\00", align 1
@.str.277 = private unnamed_addr constant [9 x i8] c"Sort Key\00", align 1
@.str.278 = private unnamed_addr constant [26 x i8] c"no tlist entry for key %d\00", align 1
@__func__.show_grouping_set_keys = private unnamed_addr constant [23 x i8] c"show_grouping_set_keys\00", align 1
@.str.279 = private unnamed_addr constant [3 x i8] c"()\00", align 1

; Function Attrs: nounwind uwtable
define dso_local void @ExplainPropertyText(ptr noundef %0, ptr noundef %1, ptr noundef %2) #0 {
  %4 = alloca ptr, align 8
  %5 = alloca ptr, align 8
  %6 = alloca ptr, align 8
  store ptr %0, ptr %4, align 8
  store ptr %1, ptr %5, align 8
  store ptr %2, ptr %6, align 8
  %7 = load ptr, ptr %4, align 8
  %8 = load ptr, ptr %5, align 8
  %9 = load ptr, ptr %6, align 8
  call void @ExplainProperty(ptr noundef %7, ptr noundef null, ptr noundef %8, i1 noundef zeroext false, ptr noundef %9)
  ret void
}

; Function Attrs: nounwind uwtable
define internal void @show_grouping_set_keys(ptr noundef %0, ptr noundef %1, ptr noundef %2, ptr noundef %3, i1 noundef zeroext %4, ptr noundef %5, ptr noundef %6) #0 {
  %8 = alloca ptr, align 8
  %9 = alloca ptr, align 8
  %10 = alloca ptr, align 8
  %11 = alloca ptr, align 8
  %12 = alloca i8, align 1
  %13 = alloca ptr, align 8
  %14 = alloca ptr, align 8
  %15 = alloca ptr, align 8
  %16 = alloca ptr, align 8
  %17 = alloca ptr, align 8
  %18 = alloca ptr, align 8
  %19 = alloca ptr, align 8
  %20 = alloca ptr, align 8
  %21 = alloca ptr, align 8
  %22 = alloca %struct.ForEachState, align 8
  %23 = alloca i32, align 4
  %24 = alloca ptr, align 8
  %25 = alloca ptr, align 8
  %26 = alloca %struct.ForEachState, align 8
  %27 = alloca i32, align 4
  %28 = alloca i16, align 2
  %29 = alloca ptr, align 8
  store ptr %0, ptr %8, align 8
  store ptr %1, ptr %9, align 8
  store ptr %2, ptr %10, align 8
  store ptr %3, ptr %11, align 8
  %30 = zext i1 %4 to i8
  store i8 %30, ptr %12, align 1
  store ptr %5, ptr %13, align 8
  store ptr %6, ptr %14, align 8
  call void @llvm.lifetime.start.p0(i64 8, ptr %15) #10
  %31 = load ptr, ptr %8, align 8
  %32 = getelementptr inbounds nuw %struct.PlanState, ptr %31, i32 0, i32 1
  %33 = load ptr, ptr %32, align 8
  store ptr %33, ptr %15, align 8
  call void @llvm.lifetime.start.p0(i64 8, ptr %16) #10
  call void @llvm.lifetime.start.p0(i64 8, ptr %17) #10
  call void @llvm.lifetime.start.p0(i64 8, ptr %18) #10
  %34 = load ptr, ptr %9, align 8
  %35 = getelementptr inbounds nuw %struct.Agg, ptr %34, i32 0, i32 10
  %36 = load ptr, ptr %35, align 8
  store ptr %36, ptr %18, align 8
  call void @llvm.lifetime.start.p0(i64 8, ptr %19) #10
  %37 = load ptr, ptr %9, align 8
  %38 = getelementptr inbounds nuw %struct.Agg, ptr %37, i32 0, i32 4
  %39 = load ptr, ptr %38, align 8
  store ptr %39, ptr %19, align 8
  call void @llvm.lifetime.start.p0(i64 8, ptr %20) #10
  call void @llvm.lifetime.start.p0(i64 8, ptr %21) #10
  %40 = load ptr, ptr %9, align 8
  %41 = getelementptr inbounds nuw %struct.Agg, ptr %40, i32 0, i32 1
  %42 = load i32, ptr %41, align 8
  %43 = icmp eq i32 %42, 2
  br i1 %43, label %49, label %44

44:                                               ; preds = %7
  %45 = load ptr, ptr %9, align 8
  %46 = getelementptr inbounds nuw %struct.Agg, ptr %45, i32 0, i32 1
  %47 = load i32, ptr %46, align 8
  %48 = icmp eq i32 %47, 3
  br i1 %48, label %49, label %50

49:                                               ; preds = %44, %7
  store ptr @.str.273, ptr %20, align 8
  store ptr @.str.274, ptr %21, align 8
  br label %51

50:                                               ; preds = %44
  store ptr @.str.271, ptr %20, align 8
  store ptr @.str.275, ptr %21, align 8
  br label %51

51:                                               ; preds = %50, %49
  %52 = load ptr, ptr %14, align 8
  call void @ExplainOpenGroup(ptr noundef @.str.276, ptr noundef null, i1 noundef zeroext true, ptr noundef %52)
  %53 = load ptr, ptr %10, align 8
  %54 = icmp ne ptr %53, null
  br i1 %54, label %55, label %84

55:                                               ; preds = %51
  %56 = load ptr, ptr %8, align 8
  %57 = load ptr, ptr %10, align 8
  %58 = getelementptr inbounds nuw %struct.Sort, ptr %57, i32 0, i32 1
  %59 = load i32, ptr %58, align 8
  %60 = load ptr, ptr %10, align 8
  %61 = getelementptr inbounds nuw %struct.Sort, ptr %60, i32 0, i32 2
  %62 = load ptr, ptr %61, align 8
  %63 = load ptr, ptr %10, align 8
  %64 = getelementptr inbounds nuw %struct.Sort, ptr %63, i32 0, i32 3
  %65 = load ptr, ptr %64, align 8
  %66 = load ptr, ptr %10, align 8
  %67 = getelementptr inbounds nuw %struct.Sort, ptr %66, i32 0, i32 4
  %68 = load ptr, ptr %67, align 8
  %69 = load ptr, ptr %10, align 8
  %70 = getelementptr inbounds nuw %struct.Sort, ptr %69, i32 0, i32 5
  %71 = load ptr, ptr %70, align 8
  %72 = load ptr, ptr %13, align 8
  %73 = load ptr, ptr %14, align 8
  call void @show_sort_group_keys(ptr noundef %56, ptr noundef @.str.277, i32 noundef %59, i32 noundef 0, ptr noundef %62, ptr noundef %65, ptr noundef %68, ptr noundef %71, ptr noundef %72, ptr noundef %73)
  %74 = load ptr, ptr %14, align 8
  %75 = getelementptr inbounds nuw %struct.ExplainState, ptr %74, i32 0, i32 12
  %76 = load i32, ptr %75, align 8
  %77 = icmp eq i32 %76, 0
  br i1 %77, label %78, label %83

78:                                               ; preds = %55
  %79 = load ptr, ptr %14, align 8
  %80 = getelementptr inbounds nuw %struct.ExplainState, ptr %79, i32 0, i32 13
  %81 = load i32, ptr %80, align 4
  %82 = add i32 %81, 1
  store i32 %82, ptr %80, align 4
  br label %83

83:                                               ; preds = %78, %55
  br label %84

84:                                               ; preds = %83, %51
  %85 = load ptr, ptr %21, align 8
  %86 = load ptr, ptr %21, align 8
  %87 = load ptr, ptr %14, align 8
  call void @ExplainOpenGroup(ptr noundef %85, ptr noundef %86, i1 noundef zeroext false, ptr noundef %87)
  call void @llvm.lifetime.start.p0(i64 16, ptr %22) #10
  %88 = getelementptr inbounds nuw %struct.ForEachState, ptr %22, i32 0, i32 0
  %89 = load ptr, ptr %18, align 8
  store ptr %89, ptr %88, align 8
  %90 = getelementptr inbounds nuw %struct.ForEachState, ptr %22, i32 0, i32 1
  store i32 0, ptr %90, align 8
  %91 = getelementptr i8, ptr %22, i64 12
  call void @llvm.memset.p0.i64(ptr align 4 %91, i8 0, i64 4, i1 false)
  br label %92

92:                                               ; preds = %209, %84
  %93 = getelementptr inbounds nuw %struct.ForEachState, ptr %22, i32 0, i32 0
  %94 = load ptr, ptr %93, align 8
  %95 = icmp ne ptr %94, null
  br i1 %95, label %96, label %113

96:                                               ; preds = %92
  %97 = getelementptr inbounds nuw %struct.ForEachState, ptr %22, i32 0, i32 1
  %98 = load i32, ptr %97, align 8
  %99 = getelementptr inbounds nuw %struct.ForEachState, ptr %22, i32 0, i32 0
  %100 = load ptr, ptr %99, align 8
  %101 = getelementptr inbounds nuw %struct.List, ptr %100, i32 0, i32 1
  %102 = load i32, ptr %101, align 4
  %103 = icmp slt i32 %98, %102
  br i1 %103, label %104, label %113

104:                                              ; preds = %96
  %105 = getelementptr inbounds nuw %struct.ForEachState, ptr %22, i32 0, i32 0
  %106 = load ptr, ptr %105, align 8
  %107 = getelementptr inbounds nuw %struct.List, ptr %106, i32 0, i32 3
  %108 = load ptr, ptr %107, align 8
  %109 = getelementptr inbounds nuw %struct.ForEachState, ptr %22, i32 0, i32 1
  %110 = load i32, ptr %109, align 8
  %111 = sext i32 %110 to i64
  %112 = getelementptr inbounds %union.ListCell, ptr %108, i64 %111
  store ptr %112, ptr %17, align 8
  br label %114

113:                                              ; preds = %96, %92
  store ptr null, ptr %17, align 8
  br label %114

114:                                              ; preds = %113, %104
  %115 = phi i32 [ 1, %104 ], [ 0, %113 ]
  %116 = icmp ne i32 %115, 0
  br i1 %116, label %118, label %117

117:                                              ; preds = %114
  store i32 2, ptr %23, align 4
  call void @llvm.lifetime.end.p0(i64 16, ptr %22) #10
  br label %213

118:                                              ; preds = %114
  call void @llvm.lifetime.start.p0(i64 8, ptr %24) #10
  store ptr null, ptr %24, align 8
  call void @llvm.lifetime.start.p0(i64 8, ptr %25) #10
  call void @llvm.lifetime.start.p0(i64 16, ptr %26) #10
  %119 = getelementptr inbounds nuw %struct.ForEachState, ptr %26, i32 0, i32 0
  %120 = load ptr, ptr %17, align 8
  %121 = load ptr, ptr %120, align 8
  store ptr %121, ptr %119, align 8
  %122 = getelementptr inbounds nuw %struct.ForEachState, ptr %26, i32 0, i32 1
  store i32 0, ptr %122, align 8
  %123 = getelementptr i8, ptr %26, i64 12
  call void @llvm.memset.p0.i64(ptr align 4 %123, i8 0, i64 4, i1 false)
  br label %124

124:                                              ; preds = %189, %118
  %125 = getelementptr inbounds nuw %struct.ForEachState, ptr %26, i32 0, i32 0
  %126 = load ptr, ptr %125, align 8
  %127 = icmp ne ptr %126, null
  br i1 %127, label %128, label %145

128:                                              ; preds = %124
  %129 = getelementptr inbounds nuw %struct.ForEachState, ptr %26, i32 0, i32 1
  %130 = load i32, ptr %129, align 8
  %131 = getelementptr inbounds nuw %struct.ForEachState, ptr %26, i32 0, i32 0
  %132 = load ptr, ptr %131, align 8
  %133 = getelementptr inbounds nuw %struct.List, ptr %132, i32 0, i32 1
  %134 = load i32, ptr %133, align 4
  %135 = icmp slt i32 %130, %134
  br i1 %135, label %136, label %145

136:                                              ; preds = %128
  %137 = getelementptr inbounds nuw %struct.ForEachState, ptr %26, i32 0, i32 0
  %138 = load ptr, ptr %137, align 8
  %139 = getelementptr inbounds nuw %struct.List, ptr %138, i32 0, i32 3
  %140 = load ptr, ptr %139, align 8
  %141 = getelementptr inbounds nuw %struct.ForEachState, ptr %26, i32 0, i32 1
  %142 = load i32, ptr %141, align 8
  %143 = sext i32 %142 to i64
  %144 = getelementptr inbounds %union.ListCell, ptr %140, i64 %143
  store ptr %144, ptr %25, align 8
  br label %146

145:                                              ; preds = %128, %124
  store ptr null, ptr %25, align 8
  br label %146

146:                                              ; preds = %145, %136
  %147 = phi i32 [ 1, %136 ], [ 0, %145 ]
  %148 = icmp ne i32 %147, 0
  br i1 %148, label %150, label %149

149:                                              ; preds = %146
  store i32 5, ptr %23, align 4
  call void @llvm.lifetime.end.p0(i64 16, ptr %26) #10
  br label %193

150:                                              ; preds = %146
  call void @llvm.lifetime.start.p0(i64 4, ptr %27) #10
  %151 = load ptr, ptr %25, align 8
  %152 = load i32, ptr %151, align 8
  store i32 %152, ptr %27, align 4
  call void @llvm.lifetime.start.p0(i64 2, ptr %28) #10
  %153 = load ptr, ptr %19, align 8
  %154 = load i32, ptr %27, align 4
  %155 = zext i32 %154 to i64
  %156 = getelementptr inbounds nuw i16, ptr %153, i64 %155
  %157 = load i16, ptr %156, align 2
  store i16 %157, ptr %28, align 2
  call void @llvm.lifetime.start.p0(i64 8, ptr %29) #10
  %158 = load ptr, ptr %15, align 8
  %159 = getelementptr inbounds nuw %struct.Plan, ptr %158, i32 0, i32 10
  %160 = load ptr, ptr %159, align 8
  %161 = load i16, ptr %28, align 2
  %162 = call ptr @get_tle_by_resno(ptr noundef %160, i16 noundef signext %161)
  store ptr %162, ptr %29, align 8
  %163 = load ptr, ptr %29, align 8
  %164 = icmp ne ptr %163, null
  br i1 %164, label %178, label %165

165:                                              ; preds = %150
  br label %166

166:                                              ; preds = %165
  br i1 true, label %167, label %169

167:                                              ; preds = %166
  %168 = call zeroext i1 @errstart_cold(i32 noundef 21, ptr noundef null) #12
  br i1 %168, label %171, label %175

169:                                              ; preds = %166
  %170 = call zeroext i1 @errstart(i32 noundef 21, ptr noundef null)
  br i1 %170, label %171, label %175

171:                                              ; preds = %169, %167
  %172 = load i16, ptr %28, align 2
  %173 = sext i16 %172 to i32
  %174 = call i32 (ptr, ...) @errmsg_internal(ptr noundef @.str.278, i32 noundef %173)
  call void @errfinish(ptr noundef @.str.16, i32 noundef 2862, ptr noundef @__func__.show_grouping_set_keys)
  br label %175

175:                                              ; preds = %171, %169, %167
  unreachable

176:                                              ; No predecessors!
  br label %177

177:                                              ; preds = %176
  br label %178

178:                                              ; preds = %177, %150
  %179 = load ptr, ptr %29, align 8
  %180 = getelementptr inbounds nuw %struct.TargetEntry, ptr %179, i32 0, i32 1
  %181 = load ptr, ptr %180, align 8
  %182 = load ptr, ptr %11, align 8
  %183 = load i8, ptr %12, align 1, !range !6, !noundef !7
  %184 = trunc i8 %183 to i1
  %185 = call ptr @deparse_expression(ptr noundef %181, ptr noundef %182, i1 noundef zeroext %184, i1 noundef zeroext true)
  store ptr %185, ptr %16, align 8
  %186 = load ptr, ptr %24, align 8
  %187 = load ptr, ptr %16, align 8
  %188 = call ptr @lappend(ptr noundef %186, ptr noundef %187)
  store ptr %188, ptr %24, align 8
  call void @llvm.lifetime.end.p0(i64 8, ptr %29) #10
  call void @llvm.lifetime.end.p0(i64 2, ptr %28) #10
  call void @llvm.lifetime.end.p0(i64 4, ptr %27) #10
  br label %189

189:                                              ; preds = %178
  %190 = getelementptr inbounds nuw %struct.ForEachState, ptr %26, i32 0, i32 1
  %191 = load i32, ptr %190, align 8
  %192 = add i32 %191, 1
  store i32 %192, ptr %190, align 8
  br label %124, !llvm.loop !51

193:                                              ; preds = %149
  %194 = load ptr, ptr %24, align 8
  %195 = icmp ne ptr %194, null
  br i1 %195, label %204, label %196

196:                                              ; preds = %193
  %197 = load ptr, ptr %14, align 8
  %198 = getelementptr inbounds nuw %struct.ExplainState, ptr %197, i32 0, i32 12
  %199 = load i32, ptr %198, align 8
  %200 = icmp eq i32 %199, 0
  br i1 %200, label %201, label %204

201:                                              ; preds = %196
  %202 = load ptr, ptr %20, align 8
  %203 = load ptr, ptr %14, align 8
  call void @ExplainPropertyText(ptr noundef %202, ptr noundef @.str.279, ptr noundef %203)
  br label %208

204:                                              ; preds = %196, %193
  %205 = load ptr, ptr %20, align 8
  %206 = load ptr, ptr %24, align 8
  %207 = load ptr, ptr %14, align 8
  call void @ExplainPropertyListNested(ptr noundef %205, ptr noundef %206, ptr noundef %207)
  br label %208

208:                                              ; preds = %204, %201
  call void @llvm.lifetime.end.p0(i64 8, ptr %25) #10
  call void @llvm.lifetime.end.p0(i64 8, ptr %24) #10
  br label %209

209:                                              ; preds = %208
  %210 = getelementptr inbounds nuw %struct.ForEachState, ptr %22, i32 0, i32 1
  %211 = load i32, ptr %210, align 8
  %212 = add i32 %211, 1
  store i32 %212, ptr %210, align 8
  br label %92, !llvm.loop !52

213:                                              ; preds = %117
  %214 = load ptr, ptr %21, align 8
  %215 = load ptr, ptr %21, align 8
  %216 = load ptr, ptr %14, align 8
  call void @ExplainCloseGroup(ptr noundef %214, ptr noundef %215, i1 noundef zeroext false, ptr noundef %216)
  %217 = load ptr, ptr %10, align 8
  %218 = icmp ne ptr %217, null
  br i1 %218, label %219, label %229

219:                                              ; preds = %213
  %220 = load ptr, ptr %14, align 8
  %221 = getelementptr inbounds nuw %struct.ExplainState, ptr %220, i32 0, i32 12
  %222 = load i32, ptr %221, align 8
  %223 = icmp eq i32 %222, 0
  br i1 %223, label %224, label %229

224:                                              ; preds = %219
  %225 = load ptr, ptr %14, align 8
  %226 = getelementptr inbounds nuw %struct.ExplainState, ptr %225, i32 0, i32 13
  %227 = load i32, ptr %226, align 4
  %228 = add i32 %227, -1
  store i32 %228, ptr %226, align 4
  br label %229

229:                                              ; preds = %224, %219, %213
  %230 = load ptr, ptr %14, align 8
  call void @ExplainCloseGroup(ptr noundef @.str.276, ptr noundef null, i1 noundef zeroext true, ptr noundef %230)
  call void @llvm.lifetime.end.p0(i64 8, ptr %21) #10
  call void @llvm.lifetime.end.p0(i64 8, ptr %20) #10
  call void @llvm.lifetime.end.p0(i64 8, ptr %19) #10
  call void @llvm.lifetime.end.p0(i64 8, ptr %18) #10
  call void @llvm.lifetime.end.p0(i64 8, ptr %17) #10
  call void @llvm.lifetime.end.p0(i64 8, ptr %16) #10
  call void @llvm.lifetime.end.p0(i64 8, ptr %15) #10
  ret void
}