; Function Attrs: nounwind uwtable
define internal fastcc void @show_grouping_set_keys(ptr noundef readonly captures(none) %0, ptr noundef readonly captures(none) %1, ptr noundef readonly captures(address_is_null) %2, ptr noundef %3, i1 noundef zeroext %4, ptr noundef %5, ptr noundef captures(none) %6) unnamed_addr #0 {
  %8 = getelementptr inbounds nuw i8, ptr %0, i64 8
  %9 = load ptr, ptr %8, align 8
  %10 = getelementptr inbounds nuw i8, ptr %1, i64 168
  %11 = load ptr, ptr %10, align 8
  %12 = getelementptr inbounds nuw i8, ptr %1, i64 120
  %13 = load ptr, ptr %12, align 8
  %14 = getelementptr inbounds nuw i8, ptr %1, i64 104
  %15 = load i32, ptr %14, align 8
  %16 = and i32 %15, -2
  %switch = icmp eq i32 %16, 2
  %spec.select = select i1 %switch, ptr @.str.274, ptr @.str.275
  %spec.select74 = select i1 %switch, ptr @.str.273, ptr @.str.271
  tail call void @ExplainOpenGroup(ptr noundef nonnull @.str.276, ptr noundef null, i1 noundef zeroext true, ptr noundef %6)
  %.not = icmp eq ptr %2, null
  br i1 %.not, label %35, label %17

17:                                               ; preds = %7
  %18 = getelementptr inbounds nuw i8, ptr %2, i64 104
  %19 = load i32, ptr %18, align 8
  %20 = getelementptr inbounds nuw i8, ptr %2, i64 112
  %21 = load ptr, ptr %20, align 8
  %22 = getelementptr inbounds nuw i8, ptr %2, i64 120
  %23 = load ptr, ptr %22, align 8
  %24 = getelementptr inbounds nuw i8, ptr %2, i64 128
  %25 = load ptr, ptr %24, align 8
  %26 = getelementptr inbounds nuw i8, ptr %2, i64 136
  %27 = load ptr, ptr %26, align 8
  %.val = load ptr, ptr %8, align 8
  tail call fastcc void @show_sort_group_keys(ptr %.val, ptr noundef nonnull @.str.277, i32 noundef %19, i32 noundef 0, ptr noundef %21, ptr noundef %23, ptr noundef %25, ptr noundef %27, ptr noundef %5, ptr noundef %6)
  %28 = getelementptr inbounds nuw i8, ptr %6, i64 24
  %29 = load i32, ptr %28, align 8
  %30 = icmp eq i32 %29, 0
  br i1 %30, label %31, label %35

31:                                               ; preds = %17
  %32 = getelementptr inbounds nuw i8, ptr %6, i64 28
  %33 = load i32, ptr %32, align 4
  %34 = add i32 %33, 1
  store i32 %34, ptr %32, align 4
  br label %35

35:                                               ; preds = %17, %31, %7
  tail call void @ExplainOpenGroup(ptr noundef nonnull %spec.select, ptr noundef nonnull %spec.select, i1 noundef zeroext false, ptr noundef %6)
  %.not68 = icmp eq ptr %11, null
  br i1 %.not68, label %._crit_edge97, label %.lr.ph96

.lr.ph96:                                         ; preds = %35
  %36 = getelementptr inbounds nuw i8, ptr %11, i64 4
  %37 = getelementptr inbounds nuw i8, ptr %11, i64 16
  %38 = getelementptr inbounds nuw i8, ptr %9, i64 48
  %39 = getelementptr inbounds nuw i8, ptr %6, i64 24
  %40 = load i32, ptr %36, align 4
  %41 = icmp sgt i32 %40, 0
  br i1 %41, label %.lr.ph112, label %._crit_edge97

._crit_edge97:                                    ; preds = %71, %.lr.ph96, %35
  tail call void @ExplainCloseGroup(ptr noundef nonnull %spec.select, ptr nonnull poison, i1 noundef zeroext false, ptr noundef %6)
  br i1 %.not, label %83, label %75

.lr.ph112:                                        ; preds = %.lr.ph96, %71
  %indvars.iv102111 = phi i64 [ %indvars.iv.next103, %71 ], [ 0, %.lr.ph96 ]
  %42 = load ptr, ptr %37, align 8
  %43 = getelementptr inbounds nuw %union.ListCell, ptr %42, i64 %indvars.iv102111
  %44 = load ptr, ptr %43, align 8
  %.not70 = icmp eq ptr %44, null
  br i1 %.not70, label %._crit_edge.thread, label %.lr.ph

.lr.ph:                                           ; preds = %.lr.ph112
  %45 = getelementptr inbounds nuw i8, ptr %44, i64 4
  %46 = getelementptr inbounds nuw i8, ptr %44, i64 16
  %47 = load i32, ptr %45, align 4
  %48 = icmp sgt i32 %47, 0
  br i1 %48, label %.lr.ph92, label %._crit_edge.thread

._crit_edge:                                      ; preds = %60
  %.not72 = icmp eq ptr %64, null
  br i1 %.not72, label %._crit_edge.thread, label %.split

.split:                                           ; preds = %._crit_edge
  tail call void @ExplainPropertyListNested(ptr noundef nonnull %spec.select74, ptr noundef nonnull %64, ptr noundef %6)
  br label %71

.lr.ph92:                                         ; preds = %.lr.ph, %60
  %indvars.iv = phi i64 [ %indvars.iv.next, %60 ], [ 0, %.lr.ph ]
  %.0618291 = phi ptr [ %64, %60 ], [ null, %.lr.ph ]
  %49 = load ptr, ptr %46, align 8
  %50 = getelementptr inbounds nuw %union.ListCell, ptr %49, i64 %indvars.iv
  %51 = load i32, ptr %50, align 8
  %52 = zext i32 %51 to i64
  %53 = getelementptr inbounds nuw i16, ptr %13, i64 %52
  %54 = load i16, ptr %53, align 2
  %55 = load ptr, ptr %38, align 8
  %56 = tail call ptr @get_tle_by_resno(ptr noundef %55, i16 noundef signext %54) #13
  %.not73 = icmp eq ptr %56, null
  br i1 %.not73, label %.split87, label %60

.split87:                                         ; preds = %.lr.ph92
  %57 = tail call zeroext i1 @errstart_cold(i32 noundef 21, ptr noundef null) #15
  tail call void @llvm.assume(i1 %57)
  %58 = sext i16 %54 to i32
  %59 = tail call i32 (ptr, ...) @errmsg_internal(ptr noundef nonnull @.str.278, i32 noundef %58) #13
  tail call void @errfinish(ptr noundef nonnull @.str.16, i32 noundef 2862, ptr noundef nonnull @__func__.show_grouping_set_keys) #13
  unreachable

60:                                               ; preds = %.lr.ph92
  %61 = getelementptr inbounds nuw i8, ptr %56, i64 8
  %62 = load ptr, ptr %61, align 8
  %63 = tail call ptr @deparse_expression(ptr noundef %62, ptr noundef %3, i1 noundef zeroext %4, i1 noundef zeroext true) #13
  %64 = tail call ptr @lappend(ptr noundef %.0618291, ptr noundef %63) #13
  %indvars.iv.next = add nuw nsw i64 %indvars.iv, 1
  %65 = load i32, ptr %45, align 4
  %66 = sext i32 %65 to i64
  %67 = icmp slt i64 %indvars.iv.next, %66
  br i1 %67, label %.lr.ph92, label %._crit_edge

._crit_edge.thread:                               ; preds = %.lr.ph, %.lr.ph112, %._crit_edge
  %68 = load i32, ptr %39, align 8
  %69 = icmp eq i32 %68, 0
  br i1 %69, label %70, label %.split62

.split62:                                         ; preds = %._crit_edge.thread
  tail call void @ExplainPropertyListNested(ptr noundef nonnull %spec.select74, ptr noundef null, ptr noundef nonnull %6)
  br label %71

70:                                               ; preds = %._crit_edge.thread
  tail call fastcc void @ExplainProperty(ptr noundef nonnull %spec.select74, ptr noundef null, ptr noundef nonnull @.str.279, i1 noundef zeroext false, ptr noundef nonnull readonly %6)
  br label %71

71:                                               ; preds = %.split, %.split62, %70
  %indvars.iv.next103 = add nuw nsw i64 %indvars.iv102111, 1
  %72 = load i32, ptr %36, align 4
  %73 = sext i32 %72 to i64
  %74 = icmp slt i64 %indvars.iv.next103, %73
  br i1 %74, label %.lr.ph112, label %._crit_edge97

75:                                               ; preds = %._crit_edge97
  %76 = getelementptr inbounds nuw i8, ptr %6, i64 24
  %77 = load i32, ptr %76, align 8
  %78 = icmp eq i32 %77, 0
  br i1 %78, label %79, label %83

79:                                               ; preds = %75
  %80 = getelementptr inbounds nuw i8, ptr %6, i64 28
  %81 = load i32, ptr %80, align 4
  %82 = add i32 %81, -1
  store i32 %82, ptr %80, align 4
  br label %83

83:                                               ; preds = %79, %75, %._crit_edge97
  tail call void @ExplainCloseGroup(ptr noundef nonnull @.str.276, ptr poison, i1 noundef zeroext true, ptr noundef %6)
  ret void
}